target datalayout = "e-m:e-p270:32:32-p271:32:32-p272:64:64-i64:64-i128:128-f80:128-n8:16:32:64-S128"
target triple = "x86_64-pc-linux-gnu"

@.str.1 = private unnamed_addr constant [53 x i8] c"cli_hex2str(): Malformed hexstring: %s (length: %u)\0A\00", align 1

; Function Attrs: nounwind uwtable
define internal i32 @cli_hex2int(i8 noundef signext %0) #0 {
  %2 = alloca i8, align 1
  store i8 %0, ptr %2, align 1
  %3 = load i8, ptr %2, align 1
  %4 = zext i8 %3 to i64
  %5 = getelementptr inbounds [256 x i32], ptr @hex_chars, i64 0, i64 %4
  %6 = load i32, ptr %5, align 4
  ret i32 %6
}

; Function Attrs: nounwind uwtable
define i32 @cli_hex2str_to(ptr noundef %0, ptr noundef %1, i64 noundef %2) #0 {
  %4 = alloca i32, align 4
  %5 = alloca ptr, align 8
  %6 = alloca ptr, align 8
  %7 = alloca i64, align 8
  %8 = alloca i64, align 8
  %9 = alloca i32, align 4
  %10 = alloca i8, align 1
  store ptr %0, ptr %5, align 8
  store ptr %1, ptr %6, align 8
  store i64 %2, ptr %7, align 8
  store i64 0, ptr %8, align 8
  br label %11

11:                                               ; preds = %46, %3
  %12 = load i64, ptr %8, align 8
  %13 = load i64, ptr %7, align 8
  %14 = icmp ult i64 %12, %13
  br i1 %14, label %15, label %49

15:                                               ; preds = %11
  %16 = load ptr, ptr %5, align 8
  %17 = load i64, ptr %8, align 8
  %18 = getelementptr inbounds i8, ptr %16, i64 %17
  %19 = load i8, ptr %18, align 1
  %20 = call i32 @cli_hex2int(i8 noundef signext %19)
  store i32 %20, ptr %9, align 4
  %21 = icmp sge i32 %20, 0
  br i1 %21, label %22, label %41

22:                                               ; preds = %15
  %23 = load i32, ptr %9, align 4
  %24 = trunc i32 %23 to i8
  store i8 %24, ptr %10, align 1
  %25 = load ptr, ptr %5, align 8
  %26 = load i64, ptr %8, align 8
  %27 = add i64 %26, 1
  %28 = getelementptr inbounds i8, ptr %25, i64 %27
  %29 = load i8, ptr %28, align 1
  %30 = call i32 @cli_hex2int(i8 noundef signext %29)
  store i32 %30, ptr %9, align 4
  %31 = icmp sge i32 %30, 0
  br i1 %31, label %32, label %39

32:                                               ; preds = %22
  %33 = load i8, ptr %10, align 1
  %34 = sext i8 %33 to i32
  %35 = shl i32 %34, 4
  %36 = load i32, ptr %9, align 4
  %37 = add nsw i32 %35, %36
  %38 = trunc i32 %37 to i8
  store i8 %38, ptr %10, align 1
  br label %40

39:                                               ; preds = %22
  store i32 -1, ptr %4, align 4
  br label %50

40:                                               ; preds = %32
  br label %42

41:                                               ; preds = %15
  store i32 -1, ptr %4, align 4
  br label %50

42:                                               ; preds = %40
  %43 = load i8, ptr %10, align 1
  %44 = load ptr, ptr %6, align 8
  %45 = getelementptr inbounds i8, ptr %44, i32 1
  store ptr %45, ptr %6, align 8
  store i8 %43, ptr %44, align 1
  br label %46

46:                                               ; preds = %42
  %47 = load i64, ptr %8, align 8
  %48 = add i64 %47, 2
  store i64 %48, ptr %8, align 8
  br label %11

49:                                               ; preds = %11
  store i32 0, ptr %4, align 4
  br label %50

50:                                               ; preds = %49, %41, %39
  %51 = load i32, ptr %4, align 4
  ret i32 %51
}

; Function Attrs: nounwind uwtable
define ptr @cli_hex2str(ptr noundef %0) #0 {
  %2 = alloca ptr, align 8
  %3 = alloca ptr, align 8
  %4 = alloca ptr, align 8
  %5 = alloca i64, align 8
  store ptr %0, ptr %3, align 8
  %6 = load ptr, ptr %3, align 8
  %7 = call i64 @strlen(ptr noundef %6) #7
  store i64 %7, ptr %5, align 8
  %8 = load i64, ptr %5, align 8
  %9 = urem i64 %8, 2
  %10 = icmp ne i64 %9, 0
  br i1 %10, label %11, label %15

11:                                               ; preds = %1
  %12 = load ptr, ptr %3, align 8
  %13 = load i64, ptr %5, align 8
  %14 = trunc i64 %13 to i32
  call void (ptr, ...) @cli_errmsg(ptr noundef @.str.1, ptr noundef %12, i32 noundef %14)
  store ptr null, ptr %2, align 8
  br label %33

15:                                               ; preds = %1
  %16 = load i64, ptr %5, align 8
  %17 = udiv i64 %16, 2
  %18 = add i64 %17, 1
  %19 = call ptr @cli_max_calloc(i64 noundef %18, i64 noundef 1)
  store ptr %19, ptr %4, align 8
  %20 = load ptr, ptr %4, align 8
  %21 = icmp ne ptr %20, null
  br i1 %21, label %23, label %22

22:                                               ; preds = %15
  store ptr null, ptr %2, align 8
  br label %33

23:                                               ; preds = %15
  %24 = load ptr, ptr %3, align 8
  %25 = load ptr, ptr %4, align 8
  %26 = load i64, ptr %5, align 8
  %27 = call i32 @cli_hex2str_to(ptr noundef %24, ptr noundef %25, i64 noundef %26)
  %28 = icmp eq i32 %27, -1
  br i1 %28, label %29, label %31

29:                                               ; preds = %23
  %30 = load ptr, ptr %4, align 8
  call void @free(ptr noundef %30) #8
  store ptr null, ptr %2, align 8
  br label %33

31:                                               ; preds = %23
  %32 = load ptr, ptr %4, align 8
  store ptr %32, ptr %2, align 8
  br label %33

33:                                               ; preds = %31, %29, %22, %11
  %34 = load ptr, ptr %2, align 8
  ret ptr %34
}