; Function Attrs: nounwind uwtable
define ptr @cli_hex2str(ptr noundef %0) local_unnamed_addr #1 {
  %2 = tail call i64 @strlen(ptr noundef nonnull dereferenceable(1) %0) #26
  %3 = and i64 %2, 1
  %.not = icmp eq i64 %3, 0
  br i1 %.not, label %6, label %4

4:                                                ; preds = %1
  %5 = trunc i64 %2 to i32
  tail call void (ptr, ...) @cli_errmsg(ptr noundef nonnull @.str.1, ptr noundef %0, i32 noundef %5) #27
  br label %cli_hex2str_to.exit

6:                                                ; preds = %1
  %7 = lshr exact i64 %2, 1
  %8 = add nuw i64 %7, 1
  %9 = tail call ptr @cli_max_calloc(i64 noundef %8, i64 noundef 1) #27
  %.not12 = icmp eq ptr %9, null
  br i1 %.not12, label %cli_hex2str_to.exit, label %10

10:                                               ; preds = %6
  %.not.i = icmp eq i64 %2, 0
  br i1 %.not.i, label %cli_hex2str_to.exit, label %.lr.ph.i

.lr.ph.i:                                         ; preds = %10, %25
  %.017.i = phi i64 [ %30, %25 ], [ 0, %10 ]
  %.01316.i = phi ptr [ %29, %25 ], [ %9, %10 ]
  %11 = getelementptr inbounds i8, ptr %0, i64 %.017.i
  %12 = load i8, ptr %11, align 1
  %13 = zext i8 %12 to i64
  %14 = getelementptr inbounds [256 x i32], ptr @hex_chars, i64 0, i64 %13
  %15 = load i32, ptr %14, align 4
  %16 = icmp sgt i32 %15, -1
  br i1 %16, label %17, label %32

17:                                               ; preds = %.lr.ph.i
  %18 = or disjoint i64 %.017.i, 1
  %19 = getelementptr inbounds i8, ptr %0, i64 %18
  %20 = load i8, ptr %19, align 1
  %21 = zext i8 %20 to i64
  %22 = getelementptr inbounds [256 x i32], ptr @hex_chars, i64 0, i64 %21
  %23 = load i32, ptr %22, align 4
  %24 = icmp sgt i32 %23, -1
  br i1 %24, label %25, label %32

25:                                               ; preds = %17
  %26 = shl i32 %15, 4
  %27 = add i32 %23, %26
  %28 = trunc i32 %27 to i8
  %29 = getelementptr inbounds i8, ptr %.01316.i, i64 1
  store i8 %28, ptr %.01316.i, align 1
  %30 = add i64 %.017.i, 2
  %31 = icmp ult i64 %30, %2
  br i1 %31, label %.lr.ph.i, label %cli_hex2str_to.exit

32:                                               ; preds = %.lr.ph.i, %17
  tail call void @free(ptr noundef %9) #27
  br label %cli_hex2str_to.exit

cli_hex2str_to.exit:                              ; preds = %25, %10, %6, %32, %4
  %.0 = phi ptr [ null, %4 ], [ null, %32 ], [ null, %6 ], [ %9, %10 ], [ %9, %25 ]
  ret ptr %.0
}